; Function Attrs: alwaysinline norecurse nounwind ssp uwtable
define internal void @"_ZN6open3d4core15ParallelForCPU_IZNS0_6kernelL19LaunchUnaryEWKernelIZNS2_7CopyCPUERKNS0_6TensorERS4_E3$_1EEvRKNS0_7IndexerERKT_EUllE_EEvRKNS0_6DeviceElSE_.omp_outlined"(ptr noalias noundef readonly captures(none) %0, ptr noalias readnone captures(none) %1, ptr noundef nonnull readonly align 8 captures(none) dereferenceable(8) %2, ptr noundef nonnull readonly align 8 captures(none) dereferenceable(16) %3) #24 personality ptr @__gxx_personality_v0 {
  %5 = alloca i64, align 8
  %6 = alloca i64, align 8
  %7 = alloca i64, align 8
  %8 = alloca i32, align 4
  %9 = load i64, ptr %2, align 8, !tbaa !9
  %10 = icmp sgt i64 %9, 0
  br i1 %10, label %11, label %80

11:                                               ; preds = %4
  %12 = add nsw i64 %9, -1
  call void @llvm.lifetime.start.p0(i64 8, ptr nonnull %5) #25
  store i64 0, ptr %5, align 8, !tbaa !9
  call void @llvm.lifetime.start.p0(i64 8, ptr nonnull %6) #25
  store i64 %12, ptr %6, align 8, !tbaa !9
  call void @llvm.lifetime.start.p0(i64 8, ptr nonnull %7) #25
  store i64 1, ptr %7, align 8, !tbaa !9
  call void @llvm.lifetime.start.p0(i64 4, ptr nonnull %8) #25
  store i32 0, ptr %8, align 4, !tbaa !39
  %13 = load i32, ptr %0, align 4, !tbaa !39
  call void @__kmpc_for_static_init_8(ptr nonnull @1, i32 %13, i32 34, ptr nonnull %8, ptr nonnull %5, ptr nonnull %6, ptr nonnull %7, i64 1, i64 1)
  %14 = load i64, ptr %6, align 8, !tbaa !9
  %15 = call i64 @llvm.smin.i64(i64 %14, i64 %12)
  store i64 %15, ptr %6, align 8, !tbaa !9
  %16 = load i64, ptr %5, align 8, !tbaa !9
  %.not15 = icmp sgt i64 %16, %15
  br i1 %.not15, label %._crit_edge, label %.lr.ph

.lr.ph:                                           ; preds = %11
  %17 = getelementptr inbounds nuw i8, ptr %3, i64 8
  br label %18

18:                                               ; preds = %.lr.ph, %77
  %.016 = phi i64 [ %16, %.lr.ph ], [ %78, %77 ]
  %.val = load ptr, ptr %3, align 8, !tbaa !740
  %.val13 = load ptr, ptr %17, align 8, !tbaa !742
  %19 = load i64, ptr %.val, align 8
  %.not.i.i = icmp sgt i64 %19, 0
  br i1 %.not.i.i, label %20, label %_ZNK6open3d4core7Indexer11GetInputPtrEll.exit.i

20:                                               ; preds = %18
  %21 = getelementptr inbounds nuw i8, ptr %.val, i64 16
  %22 = icmp sgt i64 %.016, -1
  call void @llvm.assume(i1 %22)
  %23 = getelementptr inbounds nuw i8, ptr %.val, i64 744
  %24 = load i8, ptr %23, align 1, !tbaa !41, !range !249, !noundef !250
  %25 = trunc nuw i8 %24 to i1
  br i1 %25, label %31, label %.preheader.i.i.i

.preheader.i.i.i:                                 ; preds = %20
  %26 = getelementptr inbounds nuw i8, ptr %.val, i64 832
  %27 = load i64, ptr %26, align 8, !tbaa !743
  %28 = icmp sgt i64 %27, 0
  br i1 %28, label %.lr.ph.i.i.i, label %._crit_edge.i.i.i

.lr.ph.i.i.i:                                     ; preds = %.preheader.i.i.i
  %29 = getelementptr inbounds nuw i8, ptr %.val, i64 792
  %30 = getelementptr inbounds nuw i8, ptr %.val, i64 80
  br label %39

31:                                               ; preds = %20
  %32 = load ptr, ptr %21, align 8, !tbaa !745
  %33 = getelementptr inbounds nuw i8, ptr %.val, i64 32
  %34 = load i64, ptr %33, align 8, !tbaa !747
  %35 = mul nsw i64 %34, %.016
  %36 = getelementptr inbounds i8, ptr %32, i64 %35
  br label %_ZNK6open3d4core7Indexer11GetInputPtrEll.exit.thread.i

._crit_edge.i.i.i:                                ; preds = %39, %.preheader.i.i.i
  %.017.lcssa.i.i.i = phi i64 [ 0, %.preheader.i.i.i ], [ %46, %39 ]
  %37 = load ptr, ptr %21, align 8, !tbaa !745
  %38 = getelementptr inbounds i8, ptr %37, i64 %.017.lcssa.i.i.i
  br label %_ZNK6open3d4core7Indexer11GetInputPtrEll.exit.thread.i

39:                                               ; preds = %39, %.lr.ph.i.i.i
  %.023.i.i.i = phi i64 [ 0, %.lr.ph.i.i.i ], [ %48, %39 ]
  %.01722.i.i.i = phi i64 [ 0, %.lr.ph.i.i.i ], [ %46, %39 ]
  %.01821.i.i.i = phi i64 [ %.016, %.lr.ph.i.i.i ], [ %47, %39 ]
  %40 = getelementptr inbounds nuw [5 x i64], ptr %29, i64 0, i64 %.023.i.i.i
  %41 = load i64, ptr %40, align 8, !tbaa !9
  %42 = sdiv i64 %.01821.i.i.i, %41
  %43 = getelementptr inbounds nuw [5 x i64], ptr %30, i64 0, i64 %.023.i.i.i
  %44 = load i64, ptr %43, align 8, !tbaa !9
  %45 = mul nsw i64 %44, %42
  %46 = add nsw i64 %45, %.01722.i.i.i
  %47 = srem i64 %.01821.i.i.i, %41
  %48 = add nuw nsw i64 %.023.i.i.i, 1
  %exitcond.not.i.i.i = icmp eq i64 %48, %27
  br i1 %exitcond.not.i.i.i, label %._crit_edge.i.i.i, label %39, !llvm.loop !748

_ZNK6open3d4core7Indexer11GetInputPtrEll.exit.i:  ; preds = %18
  %49 = icmp sgt i64 %.016, -1
  call void @llvm.assume(i1 %49)
  br label %_ZNK6open3d4core7Indexer11GetInputPtrEll.exit.thread.i

_ZNK6open3d4core7Indexer11GetInputPtrEll.exit.thread.i: ; preds = %_ZNK6open3d4core7Indexer11GetInputPtrEll.exit.i, %._crit_edge.i.i.i, %31
  %.0.i2.i = phi ptr [ null, %_ZNK6open3d4core7Indexer11GetInputPtrEll.exit.i ], [ %38, %._crit_edge.i.i.i ], [ %36, %31 ]
  %50 = getelementptr inbounds nuw i8, ptr %.val, i64 536
  %51 = getelementptr inbounds nuw i8, ptr %.val, i64 749
  %52 = load i8, ptr %51, align 1, !tbaa !41, !range !249, !noundef !250
  %53 = trunc nuw i8 %52 to i1
  br i1 %53, label %59, label %.preheader.i.i2.i

.preheader.i.i2.i:                                ; preds = %_ZNK6open3d4core7Indexer11GetInputPtrEll.exit.thread.i
  %54 = getelementptr inbounds nuw i8, ptr %.val, i64 832
  %55 = load i64, ptr %54, align 8, !tbaa !743
  %56 = icmp sgt i64 %55, 0
  br i1 %56, label %.lr.ph.i.i5.i, label %._crit_edge.i.i3.i

.lr.ph.i.i5.i:                                    ; preds = %.preheader.i.i2.i
  %57 = getelementptr inbounds nuw i8, ptr %.val, i64 792
  %58 = getelementptr inbounds nuw i8, ptr %.val, i64 600
  br label %67

59:                                               ; preds = %_ZNK6open3d4core7Indexer11GetInputPtrEll.exit.thread.i
  %60 = load ptr, ptr %50, align 8, !tbaa !745
  %61 = getelementptr inbounds nuw i8, ptr %.val, i64 552
  %62 = load i64, ptr %61, align 8, !tbaa !747
  %63 = mul nsw i64 %62, %.016
  %64 = getelementptr inbounds i8, ptr %60, i64 %63
  br label %77

._crit_edge.i.i3.i:                               ; preds = %67, %.preheader.i.i2.i
  %.017.lcssa.i.i4.i = phi i64 [ 0, %.preheader.i.i2.i ], [ %74, %67 ]
  %65 = load ptr, ptr %50, align 8, !tbaa !745
  %66 = getelementptr inbounds i8, ptr %65, i64 %.017.lcssa.i.i4.i
  br label %77

67:                                               ; preds = %67, %.lr.ph.i.i5.i
  %.023.i.i6.i = phi i64 [ 0, %.lr.ph.i.i5.i ], [ %76, %67 ]
  %.01722.i.i7.i = phi i64 [ 0, %.lr.ph.i.i5.i ], [ %74, %67 ]
  %.01821.i.i8.i = phi i64 [ %.016, %.lr.ph.i.i5.i ], [ %75, %67 ]
  %68 = getelementptr inbounds nuw [5 x i64], ptr %57, i64 0, i64 %.023.i.i6.i
  %69 = load i64, ptr %68, align 8, !tbaa !9
  %70 = sdiv i64 %.01821.i.i8.i, %69
  %71 = getelementptr inbounds nuw [5 x i64], ptr %58, i64 0, i64 %.023.i.i6.i
  %72 = load i64, ptr %71, align 8, !tbaa !9
  %73 = mul nsw i64 %72, %70
  %74 = add nsw i64 %73, %.01722.i.i7.i
  %75 = srem i64 %.01821.i.i8.i, %69
  %76 = add nuw nsw i64 %.023.i.i6.i, 1
  %exitcond.not.i.i9.i = icmp eq i64 %76, %55
  br i1 %exitcond.not.i.i9.i, label %._crit_edge.i.i3.i, label %67, !llvm.loop !748

77:                                               ; preds = %._crit_edge.i.i3.i, %59
  %.019.i.i.i = phi ptr [ %64, %59 ], [ %66, %._crit_edge.i.i3.i ]
  %.val.i = load ptr, ptr %.val13, align 8, !tbaa !749
  %.val.val.i = load i64, ptr %.val.i, align 8, !tbaa !9
  call void @llvm.memcpy.p0.p0.i64(ptr noundef nonnull align 1 %.019.i.i.i, ptr noundef nonnull readonly align 1 %.0.i2.i, i64 noundef %.val.val.i, i1 noundef false) #25
  %78 = add nuw nsw i64 %.016, 1
  %79 = load i64, ptr %6, align 8, !tbaa !9
  %.not.not = icmp slt i64 %.016, %79
  br i1 %.not.not, label %18, label %._crit_edge

._crit_edge:                                      ; preds = %77, %11
  call void @__kmpc_for_static_fini(ptr nonnull @1, i32 %13)
  call void @llvm.lifetime.end.p0(i64 4, ptr nonnull %8) #25
  call void @llvm.lifetime.end.p0(i64 8, ptr nonnull %7) #25
  call void @llvm.lifetime.end.p0(i64 8, ptr nonnull %6) #25
  call void @llvm.lifetime.end.p0(i64 8, ptr nonnull %5) #25
  br label %80

80:                                               ; preds = %._crit_edge, %4
  ret void
}